; Function Attrs: nounwind uwtable
define noalias nonnull ptr @l_Std_Time_Database_defaultGetZoneRules___lambda__1(ptr noundef %0, ptr readnone captures(none) %1, ptr noundef %2) local_unnamed_addr #0 {
  %4 = load ptr, ptr @l_Std_Time_Database_defaultGetZoneRules___lambda__1___closed__1, align 8, !tbaa !10
  %5 = tail call ptr @lean_string_append(ptr noundef %4, ptr noundef %0) #4
  %6 = load ptr, ptr @l_Std_Time_Database_defaultGetZoneRules___lambda__1___closed__2, align 8, !tbaa !10
  %7 = tail call ptr @lean_string_append(ptr noundef %5, ptr noundef %6) #4
  tail call void @lean_inc_heartbeat() #4
  %8 = tail call noalias ptr @mi_malloc_small(i64 noundef 16) #4
  %9 = icmp eq ptr %8, null
  br i1 %9, label %10, label %lean_alloc_ctor.exit

10:                                               ; preds = %3
  tail call void @lean_internal_panic_out_of_memory() #5
  unreachable

lean_alloc_ctor.exit:                             ; preds = %3
  %11 = getelementptr inbounds nuw i8, ptr %8, i64 4
  store i32 1, ptr %8, align 4, !tbaa !4
  store i32 302055440, ptr %11, align 4
  %12 = getelementptr inbounds nuw i8, ptr %8, i64 8
  store ptr %7, ptr %12, align 8, !tbaa !10
  tail call void @lean_inc_heartbeat() #4
  %13 = tail call noalias ptr @mi_malloc_small(i64 noundef 24) #4
  %14 = icmp eq ptr %13, null
  br i1 %14, label %15, label %lean_alloc_ctor.exit11

15:                                               ; preds = %lean_alloc_ctor.exit
  tail call void @lean_internal_panic_out_of_memory() #5
  unreachable

lean_alloc_ctor.exit11:                           ; preds = %lean_alloc_ctor.exit
  %16 = getelementptr inbounds nuw i8, ptr %13, i64 4
  store i32 1, ptr %13, align 4, !tbaa !4
  store i32 16908312, ptr %16, align 4
  %17 = getelementptr inbounds nuw i8, ptr %13, i64 8
  store ptr %8, ptr %17, align 8, !tbaa !10
  %18 = getelementptr inbounds nuw i8, ptr %13, i64 16
  store ptr %2, ptr %18, align 8, !tbaa !10
  ret ptr %13
}